#include <math.h>
#include <stdio.h>
#include <stdlib.h>
#include <string.h>

main()
{ 
   int m,n[100];
   scanf("%d",&m);
   int i,j;
   float sum;
   int a,b,t;
   for(i=0;i<m;i++)
    {
     scanf("%d",&n[i]);
     sum=0;
     a=1;
     b=2;
     for(j=1;j<=n[i];j++)
     { 
       sum=sum+(float)b/a;
       t=a+b;
       a=b;
       b=t;
     }
     printf("%.3f\n",sum);
  }

 }